target datalayout = "e-m:e-p270:32:32-p271:32:32-p272:64:64-i64:64-i128:128-f80:128-n8:16:32:64-S128"
target triple = "x86_64-pc-linux-gnu"

%struct._object = type { %union.anon, ptr }
%union.anon = type { i64 }
%struct._typeobject = type { %struct.PyVarObject, ptr, i64, i64, ptr, i64, ptr, ptr, ptr, ptr, ptr, ptr, ptr, ptr, ptr, ptr, ptr, ptr, ptr, i64, ptr, ptr, ptr, ptr, i64, ptr, ptr, ptr, ptr, ptr, ptr, ptr, ptr, ptr, i64, ptr, ptr, ptr, ptr, ptr, ptr, ptr, ptr, ptr, ptr, ptr, i32, ptr, ptr, i8, i16 }
%struct.PyVarObject = type { %struct._object, i64 }
%struct.ElementObject = type { %struct._object, ptr, ptr, ptr, ptr, ptr }

@.str.55 = private unnamed_addr constant [16 x i8] c"<Element at %p>\00", align 1
@.str.56 = private unnamed_addr constant [19 x i8] c"<Element %R at %p>\00", align 1
@PyExc_RuntimeError = external global ptr, align 8
@.str.57 = private unnamed_addr constant [34 x i8] c"reentrant call inside %s.__repr__\00", align 1

; Function Attrs: inlinehint nounwind uwtable
define internal ptr @_Py_TYPE(ptr noundef %0) #3 {
  %2 = alloca ptr, align 8
  store ptr %0, ptr %2, align 8, !tbaa !3
  %3 = load ptr, ptr %2, align 8, !tbaa !3
  %4 = getelementptr inbounds nuw %struct._object, ptr %3, i32 0, i32 1
  %5 = load ptr, ptr %4, align 8, !tbaa !52
  ret ptr %5
}

; Function Attrs: nounwind uwtable
define internal ptr @element_repr(ptr noundef %0) #0 {
  %2 = alloca ptr, align 8
  %3 = alloca ptr, align 8
  %4 = alloca i32, align 4
  %5 = alloca ptr, align 8
  %6 = alloca i32, align 4
  %7 = alloca ptr, align 8
  store ptr %0, ptr %3, align 8, !tbaa !3
  call void @llvm.lifetime.start.p0(i64 4, ptr %4) #8
  call void @llvm.lifetime.start.p0(i64 8, ptr %5) #8
  %8 = load ptr, ptr %3, align 8, !tbaa !3
  store ptr %8, ptr %5, align 8, !tbaa !8
  %9 = load ptr, ptr %5, align 8, !tbaa !8
  %10 = getelementptr inbounds nuw %struct.ElementObject, ptr %9, i32 0, i32 1
  %11 = load ptr, ptr %10, align 8, !tbaa !44
  %12 = icmp eq ptr %11, null
  br i1 %12, label %13, label %16

13:                                               ; preds = %1
  %14 = load ptr, ptr %5, align 8, !tbaa !8
  %15 = call ptr (ptr, ...) @PyUnicode_FromFormat(ptr noundef @.str.55, ptr noundef %14)
  store ptr %15, ptr %2, align 8
  store i32 1, ptr %6, align 4
  br label %40

16:                                               ; preds = %1
  %17 = load ptr, ptr %5, align 8, !tbaa !8
  %18 = call i32 @Py_ReprEnter(ptr noundef %17)
  store i32 %18, ptr %4, align 4, !tbaa !13
  %19 = load i32, ptr %4, align 4, !tbaa !13
  %20 = icmp eq i32 %19, 0
  br i1 %20, label %21, label %29

21:                                               ; preds = %16
  call void @llvm.lifetime.start.p0(i64 8, ptr %7) #8
  %22 = load ptr, ptr %5, align 8, !tbaa !8
  %23 = getelementptr inbounds nuw %struct.ElementObject, ptr %22, i32 0, i32 1
  %24 = load ptr, ptr %23, align 8, !tbaa !44
  %25 = load ptr, ptr %5, align 8, !tbaa !8
  %26 = call ptr (ptr, ...) @PyUnicode_FromFormat(ptr noundef @.str.56, ptr noundef %24, ptr noundef %25)
  store ptr %26, ptr %7, align 8, !tbaa !3
  %27 = load ptr, ptr %5, align 8, !tbaa !8
  call void @Py_ReprLeave(ptr noundef %27)
  %28 = load ptr, ptr %7, align 8, !tbaa !3
  store ptr %28, ptr %2, align 8
  store i32 1, ptr %6, align 4
  call void @llvm.lifetime.end.p0(i64 8, ptr %7) #8
  br label %40

29:                                               ; preds = %16
  %30 = load i32, ptr %4, align 4, !tbaa !13
  %31 = icmp sgt i32 %30, 0
  br i1 %31, label %32, label %39

32:                                               ; preds = %29
  %33 = load ptr, ptr @PyExc_RuntimeError, align 8, !tbaa !3
  %34 = load ptr, ptr %5, align 8, !tbaa !8
  %35 = call ptr @_Py_TYPE(ptr noundef %34)
  %36 = getelementptr inbounds nuw %struct._typeobject, ptr %35, i32 0, i32 1
  %37 = load ptr, ptr %36, align 8, !tbaa !33
  %38 = call ptr (ptr, ptr, ...) @PyErr_Format(ptr noundef %33, ptr noundef @.str.57, ptr noundef %37)
  br label %39

39:                                               ; preds = %32, %29
  store ptr null, ptr %2, align 8
  store i32 1, ptr %6, align 4
  br label %40

40:                                               ; preds = %39, %21, %13
  call void @llvm.lifetime.end.p0(i64 8, ptr %5) #8
  call void @llvm.lifetime.end.p0(i64 4, ptr %4) #8
  %41 = load ptr, ptr %2, align 8
  ret ptr %41
}