; Function Attrs: nounwind uwtable
define internal ptr @element_repr(ptr noundef %0) #0 {
  %2 = getelementptr inbounds nuw i8, ptr %0, i64 16
  %3 = load ptr, ptr %2, align 8, !tbaa !44
  %4 = icmp eq ptr %3, null
  br i1 %4, label %5, label %7

5:                                                ; preds = %1
  %6 = tail call ptr (ptr, ...) @PyUnicode_FromFormat(ptr noundef nonnull @.str.55, ptr noundef nonnull %0) #12
  br label %21

7:                                                ; preds = %1
  %8 = tail call i32 @Py_ReprEnter(ptr noundef nonnull %0) #12
  %9 = icmp eq i32 %8, 0
  br i1 %9, label %10, label %13

10:                                               ; preds = %7
  %11 = load ptr, ptr %2, align 8, !tbaa !44
  %12 = tail call ptr (ptr, ...) @PyUnicode_FromFormat(ptr noundef nonnull @.str.56, ptr noundef %11, ptr noundef nonnull %0) #12
  tail call void @Py_ReprLeave(ptr noundef nonnull %0) #12
  br label %21

13:                                               ; preds = %7
  %14 = icmp sgt i32 %8, 0
  br i1 %14, label %15, label %21

15:                                               ; preds = %13
  %16 = load ptr, ptr @PyExc_RuntimeError, align 8, !tbaa !20
  %17 = getelementptr i8, ptr %0, i64 8
  %.val = load ptr, ptr %17, align 8, !tbaa !25
  %18 = getelementptr inbounds nuw i8, ptr %.val, i64 24
  %19 = load ptr, ptr %18, align 8, !tbaa !27
  %20 = tail call ptr (ptr, ptr, ...) @PyErr_Format(ptr noundef %16, ptr noundef nonnull @.str.57, ptr noundef %19) #12
  br label %21

21:                                               ; preds = %13, %15, %10, %5
  %.0 = phi ptr [ %6, %5 ], [ %12, %10 ], [ null, %15 ], [ null, %13 ]
  ret ptr %.0
}